; Function Attrs: nounwind uwtable
define ptr @l_Array_forIn_x27Unsafe_loop___at_Lean_Elab_OpenDecl_elabOpenDecl___spec__94___rarg___lambda__1(ptr noundef %0, ptr noundef %1, ptr noundef %2, ptr noundef %3, ptr noundef %4, ptr noundef %5) #0 {
  %7 = ptrtoint ptr %5 to i64
  %8 = and i64 %7, 1
  %.not.i = icmp eq i64 %8, 0
  br i1 %.not.i, label %9, label %lean_inc_n.exit

9:                                                ; preds = %6
  %.val.i.i = load i32, ptr %5, align 4, !tbaa !8
  %10 = icmp sgt i32 %.val.i.i, 0
  br i1 %10, label %11, label %13, !prof !11

11:                                               ; preds = %9
  %12 = add nuw i32 %.val.i.i, 2
  store i32 %12, ptr %5, align 4, !tbaa !8
  br label %lean_inc_n.exit

13:                                               ; preds = %9
  %.not.i.i = icmp eq i32 %.val.i.i, 0
  br i1 %.not.i.i, label %lean_inc_n.exit, label %14

14:                                               ; preds = %13
  tail call void @lean_inc_ref_n_cold(ptr noundef nonnull %5, i32 noundef 2) #6
  br label %lean_inc_n.exit

lean_inc_n.exit:                                  ; preds = %6, %11, %13, %14
  %15 = ptrtoint ptr %3 to i64
  %16 = and i64 %15, 1
  %.not = icmp eq i64 %16, 0
  br i1 %.not, label %17, label %lean_inc.exit23

17:                                               ; preds = %lean_inc_n.exit
  %.val.i = load i32, ptr %3, align 4, !tbaa !8
  %18 = icmp sgt i32 %.val.i, 0
  br i1 %18, label %19, label %21, !prof !11

19:                                               ; preds = %17
  %20 = add nuw i32 %.val.i, 1
  store i32 %20, ptr %3, align 4, !tbaa !8
  br label %lean_inc.exit23

21:                                               ; preds = %17
  %.not.i24 = icmp eq i32 %.val.i, 0
  br i1 %.not.i24, label %lean_inc.exit23, label %22

22:                                               ; preds = %21
  tail call void @lean_inc_ref_cold(ptr noundef nonnull %3) #6
  br label %lean_inc.exit23

lean_inc.exit23:                                  ; preds = %22, %21, %19, %lean_inc_n.exit
  %23 = ptrtoint ptr %0 to i64
  %24 = and i64 %23, 1
  %.not31 = icmp eq i64 %24, 0
  br i1 %.not31, label %25, label %lean_inc.exit22

25:                                               ; preds = %lean_inc.exit23
  %.val.i25 = load i32, ptr %0, align 4, !tbaa !8
  %26 = icmp sgt i32 %.val.i25, 0
  br i1 %26, label %27, label %29, !prof !11

27:                                               ; preds = %25
  %28 = add nuw i32 %.val.i25, 1
  store i32 %28, ptr %0, align 4, !tbaa !8
  br label %lean_inc.exit22

29:                                               ; preds = %25
  %.not.i26 = icmp eq i32 %.val.i25, 0
  br i1 %.not.i26, label %lean_inc.exit22, label %30

30:                                               ; preds = %29
  tail call void @lean_inc_ref_cold(ptr noundef nonnull %0) #6
  br label %lean_inc.exit22

lean_inc.exit22:                                  ; preds = %30, %29, %27, %lean_inc.exit23
  %31 = tail call ptr @l_List_forIn_x27_loop___at_Lean_Elab_OpenDecl_elabOpenDecl___spec__93___rarg(ptr noundef %0, ptr noundef %1, ptr noundef %2, ptr noundef %3, ptr noundef %5, ptr noundef nonnull inttoptr (i64 1 to ptr), ptr noundef %5, ptr noundef %5, ptr noundef nonnull inttoptr (i64 1 to ptr), ptr nonnull poison, ptr noundef %4)
  br i1 %.not, label %32, label %lean_inc.exit

32:                                               ; preds = %lean_inc.exit22
  %.val.i28 = load i32, ptr %3, align 4, !tbaa !8
  %33 = icmp sgt i32 %.val.i28, 0
  br i1 %33, label %34, label %36, !prof !11

34:                                               ; preds = %32
  %35 = add nuw i32 %.val.i28, 1
  store i32 %35, ptr %3, align 4, !tbaa !8
  br label %lean_inc.exit

36:                                               ; preds = %32
  %.not.i29 = icmp eq i32 %.val.i28, 0
  br i1 %.not.i29, label %lean_inc.exit, label %37

37:                                               ; preds = %36
  tail call void @lean_inc_ref_cold(ptr noundef nonnull %3) #6
  br label %lean_inc.exit

lean_inc.exit:                                    ; preds = %37, %36, %34, %lean_inc.exit22
  tail call void @lean_inc_heartbeat() #6
  %38 = tail call noalias ptr @mi_malloc_small(i64 noundef 40) #6
  %39 = icmp eq ptr %38, null
  br i1 %39, label %40, label %lean_alloc_closure.exit

40:                                               ; preds = %lean_inc.exit
  tail call void @lean_internal_panic_out_of_memory() #7
  unreachable

lean_alloc_closure.exit:                          ; preds = %lean_inc.exit
  %41 = getelementptr inbounds nuw i8, ptr %38, i64 4
  store i32 1, ptr %38, align 4, !tbaa !8
  store i32 -184549336, ptr %41, align 4
  %42 = getelementptr inbounds nuw i8, ptr %38, i64 8
  store ptr @l_Array_forIn_x27Unsafe_loop___at_Lean_Elab_OpenDecl_elabOpenDecl___spec__81___rarg___lambda__1___boxed, ptr %42, align 8, !tbaa !4
  %43 = getelementptr inbounds nuw i8, ptr %38, i64 16
  store i16 3, ptr %43, align 8, !tbaa !12
  %44 = getelementptr inbounds nuw i8, ptr %38, i64 18
  store i16 2, ptr %44, align 2, !tbaa !12
  %45 = getelementptr inbounds nuw i8, ptr %38, i64 24
  store ptr %0, ptr %45, align 8, !tbaa !4
  %46 = getelementptr inbounds nuw i8, ptr %38, i64 32
  store ptr %3, ptr %46, align 8, !tbaa !4
  %47 = tail call ptr @lean_apply_4(ptr noundef %3, ptr noundef nonnull inttoptr (i64 1 to ptr), ptr noundef nonnull inttoptr (i64 1 to ptr), ptr noundef %31, ptr noundef nonnull %38) #6
  ret ptr %47
}